target datalayout = "e-m:e-p270:32:32-p271:32:32-p272:64:64-i64:64-i128:128-f80:128-n8:16:32:64-S128"
target triple = "x86_64-pc-linux-gnu"

%struct._dummy_data_t = type { %struct.dt_imageio_module_data_t, ptr }
%struct.dt_imageio_module_data_t = type { i32, i32, i32, i32, [128 x i8], i32 }

; Function Attrs: nounwind uwtable
define internal i32 @_write_image(ptr noundef %0, ptr noundef %1, ptr noundef %2, i32 noundef %3, ptr noundef %4, ptr noundef %5, i32 noundef %6, i32 noundef %7, i32 noundef %8, i32 noundef %9, ptr noundef %10, i32 noundef %11) #0 {
  %13 = alloca ptr, align 8
  %14 = alloca ptr, align 8
  %15 = alloca ptr, align 8
  %16 = alloca i32, align 4
  %17 = alloca ptr, align 8
  %18 = alloca ptr, align 8
  %19 = alloca i32, align 4
  %20 = alloca i32, align 4
  %21 = alloca i32, align 4
  %22 = alloca i32, align 4
  %23 = alloca ptr, align 8
  %24 = alloca i32, align 4
  %25 = alloca ptr, align 8
  store ptr %0, ptr %13, align 8, !tbaa !213
  store ptr %1, ptr %14, align 8, !tbaa !85
  store ptr %2, ptr %15, align 8, !tbaa !49
  store i32 %3, ptr %16, align 4, !tbaa !43
  store ptr %4, ptr %17, align 8, !tbaa !85
  store ptr %5, ptr %18, align 8, !tbaa !49
  store i32 %6, ptr %19, align 4, !tbaa !43
  store i32 %7, ptr %20, align 4, !tbaa !43
  store i32 %8, ptr %21, align 4, !tbaa !43
  store i32 %9, ptr %22, align 4, !tbaa !43
  store ptr %10, ptr %23, align 8, !tbaa !215
  store i32 %11, ptr %24, align 4, !tbaa !43
  call void @llvm.lifetime.start.p0(i64 8, ptr %25) #12
  %26 = load ptr, ptr %13, align 8, !tbaa !213
  store ptr %26, ptr %25, align 8, !tbaa !217
  %27 = load ptr, ptr %25, align 8, !tbaa !217
  %28 = getelementptr inbounds nuw %struct._dummy_data_t, ptr %27, i32 0, i32 1
  %29 = load ptr, ptr %28, align 8, !tbaa !203
  %30 = load ptr, ptr %15, align 8, !tbaa !49
  %31 = load ptr, ptr %13, align 8, !tbaa !213
  %32 = getelementptr inbounds nuw %struct.dt_imageio_module_data_t, ptr %31, i32 0, i32 2
  %33 = load i32, ptr %32, align 4, !tbaa !219
  %34 = sext i32 %33 to i64
  %35 = mul i64 4, %34
  %36 = load ptr, ptr %13, align 8, !tbaa !213
  %37 = getelementptr inbounds nuw %struct.dt_imageio_module_data_t, ptr %36, i32 0, i32 3
  %38 = load i32, ptr %37, align 4, !tbaa !220
  %39 = sext i32 %38 to i64
  %40 = mul i64 %35, %39
  call void @llvm.memcpy.p0.p0.i64(ptr align 1 %29, ptr align 1 %30, i64 %40, i1 false)
  call void @llvm.lifetime.end.p0(i64 8, ptr %25) #12
  ret i32 0
}