; Function Attrs: mustprogress nofree norecurse nosync nounwind willreturn memory(readwrite, inaccessiblemem: none) uwtable
define internal noundef i32 @_write_image(ptr noundef readonly captures(none) %0, ptr readnone captures(none) %1, ptr noundef readonly captures(none) %2, i32 %3, ptr readnone captures(none) %4, ptr readnone captures(none) %5, i32 %6, i32 %7, i32 %8, i32 %9, ptr readnone captures(none) %10, i32 %11) #0 {
  %13 = getelementptr inbounds nuw i8, ptr %0, i64 152
  %14 = load ptr, ptr %13, align 8, !tbaa !188
  %15 = getelementptr inbounds nuw i8, ptr %0, i64 8
  %16 = load i32, ptr %15, align 4, !tbaa !196
  %17 = sext i32 %16 to i64
  %18 = shl nsw i64 %17, 2
  %19 = getelementptr inbounds nuw i8, ptr %0, i64 12
  %20 = load i32, ptr %19, align 4, !tbaa !197
  %21 = sext i32 %20 to i64
  %22 = mul i64 %18, %21
  tail call void @llvm.memcpy.p0.p0.i64(ptr align 1 %14, ptr align 1 %2, i64 %22, i1 false)
  ret i32 0
}